; ModuleID = '53/738.c'
source_filename = "53/738.c"
target datalayout = "e-m:e-p270:32:32-p271:32:32-p272:64:64-i64:64-f80:128-n8:16:32:64-S128"
target triple = "x86_64-pc-linux-gnu"

@.str = private unnamed_addr constant [3 x i8] c"%d\00", align 1
@.str.1 = private unnamed_addr constant [4 x i8] c",%d\00", align 1

; Function Attrs: noinline nounwind uwtable
define dso_local void @main() #0 {
  %1 = alloca i32, align 4
  %2 = alloca i32, align 4
  %3 = alloca [301 x i32], align 16
  %4 = alloca i32*, align 8
  %5 = alloca i32, align 4
  %6 = alloca i32, align 4
  %7 = alloca i32*, align 8
  %8 = alloca i32*, align 8
  %9 = getelementptr inbounds [301 x i32], [301 x i32]* %3, i64 0, i64 0
  store i32* %9, i32** %4, align 8
  %10 = call i32 (i8*, ...) @__isoc99_scanf(i8* getelementptr inbounds ([3 x i8], [3 x i8]* @.str, i64 0, i64 0), i32* %1)
  store i32 0, i32* %2, align 4
  br label %11

11:                                               ; preds = %40, %0
  %12 = load i32, i32* %2, align 4
  %13 = load i32, i32* %1, align 4
  %14 = icmp slt i32 %12, %13
  br i1 %14, label %15, label %43

15:                                               ; preds = %11
  store i32 1, i32* %6, align 4
  %16 = call i32 (i8*, ...) @__isoc99_scanf(i8* getelementptr inbounds ([3 x i8], [3 x i8]* @.str, i64 0, i64 0), i32* %5)
  %17 = getelementptr inbounds [301 x i32], [301 x i32]* %3, i64 0, i64 0
  store i32* %17, i32** %7, align 8
  br label %18

18:                                               ; preds = %28, %15
  %19 = load i32*, i32** %7, align 8
  %20 = load i32*, i32** %4, align 8
  %21 = icmp ne i32* %19, %20
  br i1 %21, label %22, label %31

22:                                               ; preds = %18
  %23 = load i32, i32* %5, align 4
  %24 = load i32*, i32** %7, align 8
  %25 = load i32, i32* %24, align 4
  %26 = icmp eq i32 %23, %25
  br i1 %26, label %27, label %28

27:                                               ; preds = %22
  store i32 0, i32* %6, align 4
  br label %31

28:                                               ; preds = %22
  %29 = load i32*, i32** %7, align 8
  %30 = getelementptr inbounds i32, i32* %29, i32 1
  store i32* %30, i32** %7, align 8
  br label %18

31:                                               ; preds = %27, %18
  %32 = load i32, i32* %6, align 4
  %33 = icmp eq i32 %32, 0
  br i1 %33, label %34, label %35

34:                                               ; preds = %31
  br label %40

35:                                               ; preds = %31
  %36 = load i32, i32* %5, align 4
  %37 = load i32*, i32** %4, align 8
  store i32 %36, i32* %37, align 4
  %38 = load i32*, i32** %4, align 8
  %39 = getelementptr inbounds i32, i32* %38, i32 1
  store i32* %39, i32** %4, align 8
  br label %40

40:                                               ; preds = %35, %34
  %41 = load i32, i32* %2, align 4
  %42 = add nsw i32 %41, 1
  store i32 %42, i32* %2, align 4
  br label %11

43:                                               ; preds = %11
  %44 = getelementptr inbounds [301 x i32], [301 x i32]* %3, i64 0, i64 0
  store i32* %44, i32** %8, align 8
  %45 = load i32*, i32** %8, align 8
  %46 = load i32, i32* %45, align 4
  %47 = call i32 (i8*, ...) @printf(i8* getelementptr inbounds ([3 x i8], [3 x i8]* @.str, i64 0, i64 0), i32 %46)
  %48 = load i32*, i32** %8, align 8
  %49 = getelementptr inbounds i32, i32* %48, i32 1
  store i32* %49, i32** %8, align 8
  br label %50

50:                                               ; preds = %54, %43
  %51 = load i32*, i32** %8, align 8
  %52 = load i32*, i32** %4, align 8
  %53 = icmp ne i32* %51, %52
  br i1 %53, label %54, label %60

54:                                               ; preds = %50
  %55 = load i32*, i32** %8, align 8
  %56 = load i32, i32* %55, align 4
  %57 = call i32 (i8*, ...) @printf(i8* getelementptr inbounds ([4 x i8], [4 x i8]* @.str.1, i64 0, i64 0), i32 %56)
  %58 = load i32*, i32** %8, align 8
  %59 = getelementptr inbounds i32, i32* %58, i32 1
  store i32* %59, i32** %8, align 8
  br label %50

60:                                               ; preds = %50
  ret void
}

declare dso_local i32 @__isoc99_scanf(i8*, ...) #1

declare dso_local i32 @printf(i8*, ...) #1


!llvm.module.flags = !{!0}
!llvm.ident = !{!1}

!0 = !{i32 1, !"wchar_size", i32 4}
!1 = !{!"clang version 10.0.0-4ubuntu1 "}
