; ModuleID = 'source-C-CXX/52/738.c'
source_filename = "source-C-CXX/52/738.c"
target datalayout = "e-m:e-p270:32:32-p271:32:32-p272:64:64-i64:64-f80:128-n8:16:32:64-S128"
target triple = "x86_64-pc-linux-gnu"

@.str = private unnamed_addr constant [3 x i8] c"%d\00", align 1
@.str.1 = private unnamed_addr constant [4 x i8] c",%d\00", align 1

; Function Attrs: nofree nounwind sspstrong uwtable
define dso_local void @main() local_unnamed_addr #0 {
  %1 = alloca i32, align 4
  %2 = alloca [301 x i32], align 16
  %3 = alloca i32, align 4
  %4 = bitcast i32* %1 to i8*
  call void @llvm.lifetime.start.p0i8(i64 4, i8* nonnull %4) #3
  %5 = bitcast [301 x i32]* %2 to i8*
  call void @llvm.lifetime.start.p0i8(i64 1204, i8* nonnull %5) #3
  %6 = getelementptr inbounds [301 x i32], [301 x i32]* %2, i64 0, i64 0
  %7 = call i32 (i8*, ...) @__isoc99_scanf(i8* getelementptr inbounds ([3 x i8], [3 x i8]* @.str, i64 0, i64 0), i32* nonnull %1)
  %8 = bitcast i32* %3 to i8*
  %9 = load i32, i32* %1, align 4, !tbaa !5
  %10 = icmp sgt i32 %9, 0
  br i1 %10, label %14, label %11

11:                                               ; preds = %0
  %12 = call i32 (i8*, ...) @printf(i8* nonnull dereferenceable(1) getelementptr inbounds ([3 x i8], [3 x i8]* @.str, i64 0, i64 0), i32 undef)
  %13 = getelementptr inbounds [301 x i32], [301 x i32]* %2, i64 0, i64 1
  br label %41

14:                                               ; preds = %0, %30
  %15 = phi i64 [ %31, %30 ], [ 0, %0 ]
  %16 = phi i32 [ %32, %30 ], [ 0, %0 ]
  %17 = getelementptr inbounds [301 x i32], [301 x i32]* %2, i64 0, i64 %15
  call void @llvm.lifetime.start.p0i8(i64 4, i8* nonnull %8) #3
  %18 = call i32 (i8*, ...) @__isoc99_scanf(i8* getelementptr inbounds ([3 x i8], [3 x i8]* @.str, i64 0, i64 0), i32* nonnull %3)
  %19 = load i32, i32* %3, align 4
  %20 = icmp eq i64 %15, 0
  br i1 %20, label %28, label %23

21:                                               ; preds = %23
  %22 = icmp eq i32* %27, %17
  br i1 %22, label %28, label %23, !llvm.loop !9

23:                                               ; preds = %14, %21
  %24 = phi i32* [ %27, %21 ], [ %6, %14 ]
  %25 = load i32, i32* %24, align 4, !tbaa !5
  %26 = icmp eq i32 %19, %25
  %27 = getelementptr inbounds i32, i32* %24, i64 1
  br i1 %26, label %30, label %21

28:                                               ; preds = %21, %14
  store i32 %19, i32* %17, align 4, !tbaa !5
  %29 = add nsw i64 %15, 1
  br label %30

30:                                               ; preds = %23, %28
  %31 = phi i64 [ %29, %28 ], [ %15, %23 ]
  call void @llvm.lifetime.end.p0i8(i64 4, i8* nonnull %8) #3
  %32 = add nuw nsw i32 %16, 1
  %33 = load i32, i32* %1, align 4, !tbaa !5
  %34 = icmp slt i32 %32, %33
  br i1 %34, label %14, label %35, !llvm.loop !11

35:                                               ; preds = %30
  %36 = getelementptr inbounds [301 x i32], [301 x i32]* %2, i64 0, i64 %31
  %37 = load i32, i32* %6, align 16, !tbaa !5
  %38 = call i32 (i8*, ...) @printf(i8* nonnull dereferenceable(1) getelementptr inbounds ([3 x i8], [3 x i8]* @.str, i64 0, i64 0), i32 %37)
  %39 = getelementptr inbounds [301 x i32], [301 x i32]* %2, i64 0, i64 1
  %40 = icmp eq i64 %31, 1
  br i1 %40, label %50, label %41

41:                                               ; preds = %11, %35
  %42 = phi i32* [ %13, %11 ], [ %39, %35 ]
  %43 = phi i32* [ %6, %11 ], [ %36, %35 ]
  br label %44

44:                                               ; preds = %41, %44
  %45 = phi i32* [ %48, %44 ], [ %42, %41 ]
  %46 = load i32, i32* %45, align 4, !tbaa !5
  %47 = call i32 (i8*, ...) @printf(i8* nonnull dereferenceable(1) getelementptr inbounds ([4 x i8], [4 x i8]* @.str.1, i64 0, i64 0), i32 %46)
  %48 = getelementptr inbounds i32, i32* %45, i64 1
  %49 = icmp eq i32* %48, %43
  br i1 %49, label %50, label %44, !llvm.loop !12

50:                                               ; preds = %44, %35
  call void @llvm.lifetime.end.p0i8(i64 1204, i8* nonnull %5) #3
  call void @llvm.lifetime.end.p0i8(i64 4, i8* nonnull %4) #3
  ret void
}

; Function Attrs: argmemonly mustprogress nofree nosync nounwind willreturn
declare void @llvm.lifetime.start.p0i8(i64 immarg, i8* nocapture) #1

; Function Attrs: nofree nounwind
declare noundef i32 @__isoc99_scanf(i8* nocapture noundef readonly, ...) local_unnamed_addr #2

; Function Attrs: argmemonly mustprogress nofree nosync nounwind willreturn
declare void @llvm.lifetime.end.p0i8(i64 immarg, i8* nocapture) #1

; Function Attrs: nofree nounwind
declare noundef i32 @printf(i8* nocapture noundef readonly, ...) local_unnamed_addr #2


!llvm.module.flags = !{!0, !1, !2, !3}
!llvm.ident = !{!4}

!0 = !{i32 1, !"wchar_size", i32 4}
!1 = !{i32 7, !"PIC Level", i32 2}
!2 = !{i32 7, !"PIE Level", i32 2}
!3 = !{i32 7, !"uwtable", i32 1}
!4 = !{!"clang version 13.0.0"}
!5 = !{!6, !6, i64 0}
!6 = !{!"int", !7, i64 0}
!7 = !{!"omnipotent char", !8, i64 0}
!8 = !{!"Simple C/C++ TBAA"}
!9 = distinct !{!9, !10}
!10 = !{!"llvm.loop.mustprogress"}
!11 = distinct !{!11, !10}
!12 = distinct !{!12, !10}
